target datalayout = "e-m:e-p270:32:32-p271:32:32-p272:64:64-i64:64-i128:128-f80:128-n8:16:32:64-S128"
target triple = "x86_64-pc-linux-gnu"

%struct.crypto_ex_data_st = type { ptr }
%struct.ssl_st = type { i32, i16, i16, ptr, ptr, ptr, ptr, ptr, i32, i32, ptr, ptr, i32, i32, ptr, ptr, ptr, ptr, ptr, ptr, ptr, ptr, i32, i32, [32 x i8], ptr, ptr, ptr, ptr, ptr, ptr, ptr, i64, %struct.crypto_ex_data_st, ptr, i32, i32, i32, i32, i16, ptr, i32, i64, ptr, ptr, ptr, ptr, ptr, ptr, i32, i32, ptr, ptr, i8, i8, i32 }
%struct.ssl_protocol_method_st = type { i8, ptr, ptr, ptr, ptr, ptr, ptr, ptr, ptr, ptr, ptr, ptr, i32, ptr, ptr }
%struct.ssl3_state_st = type { [8 x i8], [8 x i8], [32 x i8], [32 x i8], i8, i8, %struct.ssl3_buffer_st, %struct.ssl3_buffer_st, %struct.ssl3_record_st, i8, i32, i32, i32, i32, ptr, ptr, %struct.env_md_ctx_st, %struct.env_md_ctx_st, i8, i32, [2 x i8], i32, i8, i8, ptr, ptr, ptr, %struct.anon, [64 x i8], i8, [64 x i8], i8, i32, i32, ptr, i64, ptr, i64, i8, [64 x i8] }
%struct.ssl3_buffer_st = type { ptr, i16, i16, i16 }
%struct.ssl3_record_st = type { i8, i16, ptr }
%struct.env_md_ctx_st = type { ptr, ptr, ptr, ptr }
%struct.anon = type { [64 x i8], i32, [64 x i8], i32, i64, i32, ptr, i32, i32, %union.anon, %union.anon.0, i8, i32, ptr, ptr, i64, ptr, i8, i8, i8, i8, i32, i8, ptr, i64, i8, ptr, i8, i8, i8, %struct.ssl_ecdh_ctx_st, ptr, i16 }
%union.anon = type { i32 }
%union.anon.0 = type { i16 }
%struct.ssl_ecdh_ctx_st = type { ptr, ptr }
%struct.dtls1_state_st = type { i32, [256 x i8], i64, i16, i16, %struct.dtls1_bitmap_st, i16, i16, i16, [8 x i8], ptr, ptr, i32, %struct.hm_header_st, i32, %struct.timeval, i16 }
%struct.dtls1_bitmap_st = type { i64, i64 }
%struct.hm_header_st = type { i8, i32, i16, i32, i32, i32, i16 }
%struct.timeval = type { i64, i64 }

; Function Attrs: nounwind uwtable
define internal i64 @be_to_u64(ptr noundef %0) #0 {
  %2 = alloca ptr, align 8
  store ptr %0, ptr %2, align 8, !tbaa !55
  %3 = load ptr, ptr %2, align 8, !tbaa !55
  %4 = getelementptr inbounds i8, ptr %3, i64 0
  %5 = load i8, ptr %4, align 1, !tbaa !60
  %6 = zext i8 %5 to i64
  %7 = shl i64 %6, 56
  %8 = load ptr, ptr %2, align 8, !tbaa !55
  %9 = getelementptr inbounds i8, ptr %8, i64 1
  %10 = load i8, ptr %9, align 1, !tbaa !60
  %11 = zext i8 %10 to i64
  %12 = shl i64 %11, 48
  %13 = or i64 %7, %12
  %14 = load ptr, ptr %2, align 8, !tbaa !55
  %15 = getelementptr inbounds i8, ptr %14, i64 2
  %16 = load i8, ptr %15, align 1, !tbaa !60
  %17 = zext i8 %16 to i64
  %18 = shl i64 %17, 40
  %19 = or i64 %13, %18
  %20 = load ptr, ptr %2, align 8, !tbaa !55
  %21 = getelementptr inbounds i8, ptr %20, i64 3
  %22 = load i8, ptr %21, align 1, !tbaa !60
  %23 = zext i8 %22 to i64
  %24 = shl i64 %23, 32
  %25 = or i64 %19, %24
  %26 = load ptr, ptr %2, align 8, !tbaa !55
  %27 = getelementptr inbounds i8, ptr %26, i64 4
  %28 = load i8, ptr %27, align 1, !tbaa !60
  %29 = zext i8 %28 to i64
  %30 = shl i64 %29, 24
  %31 = or i64 %25, %30
  %32 = load ptr, ptr %2, align 8, !tbaa !55
  %33 = getelementptr inbounds i8, ptr %32, i64 5
  %34 = load i8, ptr %33, align 1, !tbaa !60
  %35 = zext i8 %34 to i64
  %36 = shl i64 %35, 16
  %37 = or i64 %31, %36
  %38 = load ptr, ptr %2, align 8, !tbaa !55
  %39 = getelementptr inbounds i8, ptr %38, i64 6
  %40 = load i8, ptr %39, align 1, !tbaa !60
  %41 = zext i8 %40 to i64
  %42 = shl i64 %41, 8
  %43 = or i64 %37, %42
  %44 = load ptr, ptr %2, align 8, !tbaa !55
  %45 = getelementptr inbounds i8, ptr %44, i64 7
  %46 = load i8, ptr %45, align 1, !tbaa !60
  %47 = zext i8 %46 to i64
  %48 = or i64 %43, %47
  ret i64 %48
}

; Function Attrs: nounwind uwtable
define hidden i64 @SSL_get_write_sequence(ptr noundef %0) #0 {
  %2 = alloca ptr, align 8
  %3 = alloca i64, align 8
  store ptr %0, ptr %2, align 8, !tbaa !80
  call void @llvm.lifetime.start.p0(i64 8, ptr %3) #8
  %4 = load ptr, ptr %2, align 8, !tbaa !80
  %5 = getelementptr inbounds nuw %struct.ssl_st, ptr %4, i32 0, i32 14
  %6 = load ptr, ptr %5, align 8, !tbaa !152
  %7 = getelementptr inbounds nuw %struct.ssl3_state_st, ptr %6, i32 0, i32 1
  %8 = getelementptr inbounds [8 x i8], ptr %7, i64 0, i64 0
  %9 = call i64 @be_to_u64(ptr noundef %8)
  store i64 %9, ptr %3, align 8, !tbaa !174
  %10 = load ptr, ptr %2, align 8, !tbaa !80
  %11 = getelementptr inbounds nuw %struct.ssl_st, ptr %10, i32 0, i32 3
  %12 = load ptr, ptr %11, align 8, !tbaa !117
  %13 = getelementptr inbounds nuw %struct.ssl_protocol_method_st, ptr %12, i32 0, i32 0
  %14 = load i8, ptr %13, align 8, !tbaa !192
  %15 = icmp ne i8 %14, 0
  br i1 %15, label %16, label %26

16:                                               ; preds = %1
  %17 = load ptr, ptr %2, align 8, !tbaa !80
  %18 = getelementptr inbounds nuw %struct.ssl_st, ptr %17, i32 0, i32 15
  %19 = load ptr, ptr %18, align 8, !tbaa !193
  %20 = getelementptr inbounds nuw %struct.dtls1_state_st, ptr %19, i32 0, i32 4
  %21 = load i16, ptr %20, align 2, !tbaa !276
  %22 = zext i16 %21 to i64
  %23 = shl i64 %22, 48
  %24 = load i64, ptr %3, align 8, !tbaa !174
  %25 = or i64 %24, %23
  store i64 %25, ptr %3, align 8, !tbaa !174
  br label %26

26:                                               ; preds = %16, %1
  %27 = load i64, ptr %3, align 8, !tbaa !174
  call void @llvm.lifetime.end.p0(i64 8, ptr %3) #8
  ret i64 %27
}