; Function Attrs: mustprogress nofree norecurse nosync nounwind willreturn memory(read, inaccessiblemem: none) uwtable
define hidden i64 @SSL_get_write_sequence(ptr noundef readonly captures(none) %0) local_unnamed_addr #10 {
  %2 = getelementptr inbounds nuw i8, ptr %0, i64 80
  %3 = load ptr, ptr %2, align 8, !tbaa !136
  %4 = getelementptr inbounds nuw i8, ptr %3, i64 8
  %5 = load i8, ptr %4, align 1, !tbaa !157
  %6 = zext i8 %5 to i64
  %7 = shl nuw i64 %6, 56
  %8 = getelementptr inbounds nuw i8, ptr %3, i64 9
  %9 = load i8, ptr %8, align 1, !tbaa !157
  %10 = zext i8 %9 to i64
  %11 = shl nuw nsw i64 %10, 48
  %12 = or disjoint i64 %11, %7
  %13 = getelementptr inbounds nuw i8, ptr %3, i64 10
  %14 = load i8, ptr %13, align 1, !tbaa !157
  %15 = zext i8 %14 to i64
  %16 = shl nuw nsw i64 %15, 40
  %17 = or disjoint i64 %12, %16
  %18 = getelementptr inbounds nuw i8, ptr %3, i64 11
  %19 = load i8, ptr %18, align 1, !tbaa !157
  %20 = zext i8 %19 to i64
  %21 = shl nuw nsw i64 %20, 32
  %22 = or disjoint i64 %17, %21
  %23 = getelementptr inbounds nuw i8, ptr %3, i64 12
  %24 = load i8, ptr %23, align 1, !tbaa !157
  %25 = zext i8 %24 to i64
  %26 = shl nuw nsw i64 %25, 24
  %27 = or disjoint i64 %22, %26
  %28 = getelementptr inbounds nuw i8, ptr %3, i64 13
  %29 = load i8, ptr %28, align 1, !tbaa !157
  %30 = zext i8 %29 to i64
  %31 = shl nuw nsw i64 %30, 16
  %32 = or disjoint i64 %27, %31
  %33 = getelementptr inbounds nuw i8, ptr %3, i64 14
  %34 = load i8, ptr %33, align 1, !tbaa !157
  %35 = zext i8 %34 to i64
  %36 = shl nuw nsw i64 %35, 8
  %37 = or i64 %32, %36
  %38 = getelementptr inbounds nuw i8, ptr %3, i64 15
  %39 = load i8, ptr %38, align 1, !tbaa !157
  %40 = zext i8 %39 to i64
  %41 = or i64 %37, %40
  %42 = getelementptr inbounds nuw i8, ptr %0, i64 8
  %43 = load ptr, ptr %42, align 8, !tbaa !106
  %44 = load i8, ptr %43, align 8, !tbaa !174
  %.not = icmp eq i8 %44, 0
  br i1 %.not, label %53, label %45

45:                                               ; preds = %1
  %46 = getelementptr inbounds nuw i8, ptr %0, i64 88
  %47 = load ptr, ptr %46, align 8, !tbaa !175
  %48 = getelementptr inbounds nuw i8, ptr %47, i64 274
  %49 = load i16, ptr %48, align 2, !tbaa !244
  %50 = zext i16 %49 to i64
  %51 = shl nuw i64 %50, 48
  %52 = or i64 %51, %41
  br label %53

53:                                               ; preds = %45, %1
  %.0 = phi i64 [ %52, %45 ], [ %41, %1 ]
  ret i64 %.0
}